; ModuleID = '33/1164.c'
source_filename = "33/1164.c"
target datalayout = "e-m:e-p270:32:32-p271:32:32-p272:64:64-i64:64-f80:128-n8:16:32:64-S128"
target triple = "x86_64-pc-linux-gnu"

@.str = private unnamed_addr constant [3 x i8] c"%d\00", align 1
@.str.1 = private unnamed_addr constant [3 x i8] c"%s\00", align 1
@.str.2 = private unnamed_addr constant [4 x i8] c"%s\0A\00", align 1

; Function Attrs: noinline nounwind uwtable
define dso_local i32 @main() #0 {
  %1 = alloca i32, align 4
  %2 = alloca i32, align 4
  %3 = alloca i32, align 4
  %4 = alloca i32, align 4
  %5 = alloca [1000 x [260 x i8]], align 16
  %6 = alloca [1000 x [260 x i8]], align 16
  %7 = alloca i32, align 4
  store i32 0, i32* %1, align 4
  %8 = call i32 (i8*, ...) @__isoc99_scanf(i8* getelementptr inbounds ([3 x i8], [3 x i8]* @.str, i64 0, i64 0), i32* %2)
  store i32 0, i32* %3, align 4
  br label %9

9:                                                ; preds = %19, %0
  %10 = load i32, i32* %3, align 4
  %11 = load i32, i32* %2, align 4
  %12 = icmp slt i32 %10, %11
  br i1 %12, label %13, label %22

13:                                               ; preds = %9
  %14 = load i32, i32* %3, align 4
  %15 = sext i32 %14 to i64
  %16 = getelementptr inbounds [1000 x [260 x i8]], [1000 x [260 x i8]]* %5, i64 0, i64 %15
  %17 = getelementptr inbounds [260 x i8], [260 x i8]* %16, i64 0, i64 0
  %18 = call i32 (i8*, ...) @__isoc99_scanf(i8* getelementptr inbounds ([3 x i8], [3 x i8]* @.str.1, i64 0, i64 0), i8* %17)
  br label %19

19:                                               ; preds = %13
  %20 = load i32, i32* %3, align 4
  %21 = add nsw i32 %20, 1
  store i32 %21, i32* %3, align 4
  br label %9

22:                                               ; preds = %9
  store i32 0, i32* %3, align 4
  br label %23

23:                                               ; preds = %114, %22
  %24 = load i32, i32* %3, align 4
  %25 = load i32, i32* %2, align 4
  %26 = icmp slt i32 %24, %25
  br i1 %26, label %27, label %117

27:                                               ; preds = %23
  %28 = load i32, i32* %3, align 4
  %29 = sext i32 %28 to i64
  %30 = getelementptr inbounds [1000 x [260 x i8]], [1000 x [260 x i8]]* %5, i64 0, i64 %29
  %31 = getelementptr inbounds [260 x i8], [260 x i8]* %30, i64 0, i64 0
  %32 = call i64 @strlen(i8* %31) #3
  %33 = trunc i64 %32 to i32
  store i32 %33, i32* %7, align 4
  store i32 0, i32* %4, align 4
  br label %34

34:                                               ; preds = %110, %27
  %35 = load i32, i32* %4, align 4
  %36 = load i32, i32* %7, align 4
  %37 = icmp slt i32 %35, %36
  br i1 %37, label %38, label %113

38:                                               ; preds = %34
  %39 = load i32, i32* %3, align 4
  %40 = sext i32 %39 to i64
  %41 = getelementptr inbounds [1000 x [260 x i8]], [1000 x [260 x i8]]* %5, i64 0, i64 %40
  %42 = load i32, i32* %4, align 4
  %43 = sext i32 %42 to i64
  %44 = getelementptr inbounds [260 x i8], [260 x i8]* %41, i64 0, i64 %43
  %45 = load i8, i8* %44, align 1
  %46 = sext i8 %45 to i32
  %47 = icmp eq i32 %46, 65
  br i1 %47, label %48, label %55

48:                                               ; preds = %38
  %49 = load i32, i32* %3, align 4
  %50 = sext i32 %49 to i64
  %51 = getelementptr inbounds [1000 x [260 x i8]], [1000 x [260 x i8]]* %6, i64 0, i64 %50
  %52 = load i32, i32* %4, align 4
  %53 = sext i32 %52 to i64
  %54 = getelementptr inbounds [260 x i8], [260 x i8]* %51, i64 0, i64 %53
  store i8 84, i8* %54, align 1
  br label %109

55:                                               ; preds = %38
  %56 = load i32, i32* %3, align 4
  %57 = sext i32 %56 to i64
  %58 = getelementptr inbounds [1000 x [260 x i8]], [1000 x [260 x i8]]* %5, i64 0, i64 %57
  %59 = load i32, i32* %4, align 4
  %60 = sext i32 %59 to i64
  %61 = getelementptr inbounds [260 x i8], [260 x i8]* %58, i64 0, i64 %60
  %62 = load i8, i8* %61, align 1
  %63 = sext i8 %62 to i32
  %64 = icmp eq i32 %63, 84
  br i1 %64, label %65, label %72

65:                                               ; preds = %55
  %66 = load i32, i32* %3, align 4
  %67 = sext i32 %66 to i64
  %68 = getelementptr inbounds [1000 x [260 x i8]], [1000 x [260 x i8]]* %6, i64 0, i64 %67
  %69 = load i32, i32* %4, align 4
  %70 = sext i32 %69 to i64
  %71 = getelementptr inbounds [260 x i8], [260 x i8]* %68, i64 0, i64 %70
  store i8 65, i8* %71, align 1
  br label %108

72:                                               ; preds = %55
  %73 = load i32, i32* %3, align 4
  %74 = sext i32 %73 to i64
  %75 = getelementptr inbounds [1000 x [260 x i8]], [1000 x [260 x i8]]* %5, i64 0, i64 %74
  %76 = load i32, i32* %4, align 4
  %77 = sext i32 %76 to i64
  %78 = getelementptr inbounds [260 x i8], [260 x i8]* %75, i64 0, i64 %77
  %79 = load i8, i8* %78, align 1
  %80 = sext i8 %79 to i32
  %81 = icmp eq i32 %80, 71
  br i1 %81, label %82, label %89

82:                                               ; preds = %72
  %83 = load i32, i32* %3, align 4
  %84 = sext i32 %83 to i64
  %85 = getelementptr inbounds [1000 x [260 x i8]], [1000 x [260 x i8]]* %6, i64 0, i64 %84
  %86 = load i32, i32* %4, align 4
  %87 = sext i32 %86 to i64
  %88 = getelementptr inbounds [260 x i8], [260 x i8]* %85, i64 0, i64 %87
  store i8 67, i8* %88, align 1
  br label %107

89:                                               ; preds = %72
  %90 = load i32, i32* %3, align 4
  %91 = sext i32 %90 to i64
  %92 = getelementptr inbounds [1000 x [260 x i8]], [1000 x [260 x i8]]* %5, i64 0, i64 %91
  %93 = load i32, i32* %4, align 4
  %94 = sext i32 %93 to i64
  %95 = getelementptr inbounds [260 x i8], [260 x i8]* %92, i64 0, i64 %94
  %96 = load i8, i8* %95, align 1
  %97 = sext i8 %96 to i32
  %98 = icmp eq i32 %97, 67
  br i1 %98, label %99, label %106

99:                                               ; preds = %89
  %100 = load i32, i32* %3, align 4
  %101 = sext i32 %100 to i64
  %102 = getelementptr inbounds [1000 x [260 x i8]], [1000 x [260 x i8]]* %6, i64 0, i64 %101
  %103 = load i32, i32* %4, align 4
  %104 = sext i32 %103 to i64
  %105 = getelementptr inbounds [260 x i8], [260 x i8]* %102, i64 0, i64 %104
  store i8 71, i8* %105, align 1
  br label %106

106:                                              ; preds = %99, %89
  br label %107

107:                                              ; preds = %106, %82
  br label %108

108:                                              ; preds = %107, %65
  br label %109

109:                                              ; preds = %108, %48
  br label %110

110:                                              ; preds = %109
  %111 = load i32, i32* %4, align 4
  %112 = add nsw i32 %111, 1
  store i32 %112, i32* %4, align 4
  br label %34

113:                                              ; preds = %34
  br label %114

114:                                              ; preds = %113
  %115 = load i32, i32* %3, align 4
  %116 = add nsw i32 %115, 1
  store i32 %116, i32* %3, align 4
  br label %23

117:                                              ; preds = %23
  store i32 0, i32* %3, align 4
  br label %118

118:                                              ; preds = %128, %117
  %119 = load i32, i32* %3, align 4
  %120 = load i32, i32* %2, align 4
  %121 = icmp slt i32 %119, %120
  br i1 %121, label %122, label %131

122:                                              ; preds = %118
  %123 = load i32, i32* %3, align 4
  %124 = sext i32 %123 to i64
  %125 = getelementptr inbounds [1000 x [260 x i8]], [1000 x [260 x i8]]* %6, i64 0, i64 %124
  %126 = getelementptr inbounds [260 x i8], [260 x i8]* %125, i64 0, i64 0
  %127 = call i32 (i8*, ...) @printf(i8* getelementptr inbounds ([4 x i8], [4 x i8]* @.str.2, i64 0, i64 0), i8* %126)
  br label %128

128:                                              ; preds = %122
  %129 = load i32, i32* %3, align 4
  %130 = add nsw i32 %129, 1
  store i32 %130, i32* %3, align 4
  br label %118

131:                                              ; preds = %118
  ret i32 0
}

declare dso_local i32 @__isoc99_scanf(i8*, ...) #1

; Function Attrs: nounwind readonly
declare dso_local i64 @strlen(i8*) #2

declare dso_local i32 @printf(i8*, ...) #1


!llvm.module.flags = !{!0}
!llvm.ident = !{!1}

!0 = !{i32 1, !"wchar_size", i32 4}
!1 = !{!"clang version 10.0.0-4ubuntu1 "}
